
donut_s:     file format elf64-x86-64


Disassembly of section .init:

0000000000001000 <_init>:
    1000:	f3 0f 1e fa          	endbr64 
    1004:	48 83 ec 08          	sub    $0x8,%rsp
    1008:	48 8b 05 d9 2f 00 00 	mov    0x2fd9(%rip),%rax        # 3fe8 <__gmon_start__@Base>
    100f:	48 85 c0             	test   %rax,%rax
    1012:	74 02                	je     1016 <_init+0x16>
    1014:	ff d0                	call   *%rax
    1016:	48 83 c4 08          	add    $0x8,%rsp
    101a:	c3                   	ret    

Disassembly of section .plt:

0000000000001020 <.plt>:
    1020:	ff 35 8a 2f 00 00    	push   0x2f8a(%rip)        # 3fb0 <_GLOBAL_OFFSET_TABLE_+0x8>
    1026:	f2 ff 25 8b 2f 00 00 	bnd jmp *0x2f8b(%rip)        # 3fb8 <_GLOBAL_OFFSET_TABLE_+0x10>
    102d:	0f 1f 00             	nopl   (%rax)
    1030:	f3 0f 1e fa          	endbr64 
    1034:	68 00 00 00 00       	push   $0x0
    1039:	f2 e9 e1 ff ff ff    	bnd jmp 1020 <_init+0x20>
    103f:	90                   	nop
    1040:	f3 0f 1e fa          	endbr64 
    1044:	68 01 00 00 00       	push   $0x1
    1049:	f2 e9 d1 ff ff ff    	bnd jmp 1020 <_init+0x20>
    104f:	90                   	nop
    1050:	f3 0f 1e fa          	endbr64 
    1054:	68 02 00 00 00       	push   $0x2
    1059:	f2 e9 c1 ff ff ff    	bnd jmp 1020 <_init+0x20>
    105f:	90                   	nop

Disassembly of section .plt.got:

0000000000001060 <__cxa_finalize@plt>:
    1060:	f3 0f 1e fa          	endbr64 
    1064:	f2 ff 25 8d 2f 00 00 	bnd jmp *0x2f8d(%rip)        # 3ff8 <__cxa_finalize@GLIBC_2.2.5>
    106b:	0f 1f 44 00 00       	nopl   0x0(%rax,%rax,1)

Disassembly of section .plt.sec:

0000000000001070 <putchar@plt>:
    1070:	f3 0f 1e fa          	endbr64 
    1074:	f2 ff 25 45 2f 00 00 	bnd jmp *0x2f45(%rip)        # 3fc0 <putchar@GLIBC_2.2.5>
    107b:	0f 1f 44 00 00       	nopl   0x0(%rax,%rax,1)

0000000000001080 <sincos@plt>:
    1080:	f3 0f 1e fa          	endbr64 
    1084:	f2 ff 25 3d 2f 00 00 	bnd jmp *0x2f3d(%rip)        # 3fc8 <sincos@GLIBC_2.2.5>
    108b:	0f 1f 44 00 00       	nopl   0x0(%rax,%rax,1)

0000000000001090 <__printf_chk@plt>:
    1090:	f3 0f 1e fa          	endbr64 
    1094:	f2 ff 25 35 2f 00 00 	bnd jmp *0x2f35(%rip)        # 3fd0 <__printf_chk@GLIBC_2.3.4>
    109b:	0f 1f 44 00 00       	nopl   0x0(%rax,%rax,1)

Disassembly of section .text:

00000000000010a0 <main>:
    10a0:	f3 0f 1e fa          	endbr64 
    10a4:	41 57                	push   %r15
    10a6:	41 56                	push   %r14
    10a8:	41 55                	push   %r13
    10aa:	41 54                	push   %r12
    10ac:	55                   	push   %rbp
    10ad:	53                   	push   %rbx
    10ae:	48 81 ec 00 10 00 00 	sub    $0x1000,%rsp
    10b5:	48 83 0c 24 00       	orq    $0x0,(%rsp)
    10ba:	48 81 ec 00 10 00 00 	sub    $0x1000,%rsp
    10c1:	48 83 0c 24 00       	orq    $0x0,(%rsp)
    10c6:	48 81 ec d8 02 00 00 	sub    $0x2d8,%rsp
    10cd:	48 8d 35 3c 0f 00 00 	lea    0xf3c(%rip),%rsi        # 2010 <_IO_stdin_used+0x10>
    10d4:	bf 01 00 00 00       	mov    $0x1,%edi
    10d9:	45 31 ff             	xor    %r15d,%r15d
    10dc:	45 31 f6             	xor    %r14d,%r14d
    10df:	64 48 8b 04 25 28 00 	mov    %fs:0x28,%rax
    10e6:	00 00 
    10e8:	48 89 84 24 c8 22 00 	mov    %rax,0x22c8(%rsp)
    10ef:	00 
    10f0:	31 c0                	xor    %eax,%eax
    10f2:	e8 99 ff ff ff       	call   1090 <__printf_chk@plt>
    10f7:	b0 20                	mov    $0x20,%al
    10f9:	b9 e0 06 00 00       	mov    $0x6e0,%ecx
    10fe:	0f 57 d2             	xorps  %xmm2,%xmm2
    1101:	bb 5b 00 00 00       	mov    $0x5b,%ebx
    1106:	48 8d 94 24 e8 1b 00 	lea    0x1be8(%rsp),%rdx
    110d:	00 
    110e:	48 89 d7             	mov    %rdx,%rdi
    1111:	48 8d 54 24 68       	lea    0x68(%rsp),%rdx
    1116:	f3 aa                	rep stos %al,%es:(%rdi)
    1118:	b9 e0 06 00 00       	mov    $0x6e0,%ecx
    111d:	31 c0                	xor    %eax,%eax
    111f:	48 89 d7             	mov    %rdx,%rdi
    1122:	f3 ab                	rep stos %eax,%es:(%rdi)
    1124:	f3 0f 5a d2          	cvtss2sd %xmm2,%xmm2
    1128:	ff cb                	dec    %ebx
    112a:	0f 84 be 02 00 00    	je     13ee <main+0x34e>
    1130:	bd 3c 01 00 00       	mov    $0x13c,%ebp
    1135:	0f 57 c0             	xorps  %xmm0,%xmm0
    1138:	f3 0f 5a f8          	cvtss2sd %xmm0,%xmm7
    113c:	f2 0f 11 7c 24 10    	movsd  %xmm7,0x10(%rsp)
    1142:	ff cd                	dec    %ebp
    1144:	0f 84 93 02 00 00    	je     13dd <main+0x33d>
    114a:	4c 8d 64 24 58       	lea    0x58(%rsp),%r12
    114f:	4c 8d 6c 24 50       	lea    0x50(%rsp),%r13
    1154:	0f 28 c2             	movaps %xmm2,%xmm0
    1157:	f2 0f 11 54 24 48    	movsd  %xmm2,0x48(%rsp)
    115d:	4c 89 ee             	mov    %r13,%rsi
    1160:	4c 89 e7             	mov    %r12,%rdi
    1163:	e8 18 ff ff ff       	call   1080 <sincos@plt>
    1168:	f2 44 0f 10 5c 24 58 	movsd  0x58(%rsp),%xmm11
    116f:	4c 89 ee             	mov    %r13,%rsi
    1172:	4c 89 e7             	mov    %r12,%rdi
    1175:	f2 0f 10 4c 24 50    	movsd  0x50(%rsp),%xmm1
    117b:	f2 0f 10 44 24 10    	movsd  0x10(%rsp),%xmm0
    1181:	f2 44 0f 11 5c 24 28 	movsd  %xmm11,0x28(%rsp)
    1188:	f2 0f 11 4c 24 08    	movsd  %xmm1,0x8(%rsp)
    118e:	e8 ed fe ff ff       	call   1080 <sincos@plt>
    1193:	f2 0f 10 64 24 50    	movsd  0x50(%rsp),%xmm4
    1199:	4c 89 ee             	mov    %r13,%rsi
    119c:	4c 89 e7             	mov    %r12,%rdi
    119f:	f2 0f 10 4c 24 08    	movsd  0x8(%rsp),%xmm1
    11a5:	f2 0f 5a 7c 24 58    	cvtsd2ss 0x58(%rsp),%xmm7
    11ab:	f3 0f 11 7c 24 1c    	movss  %xmm7,0x1c(%rsp)
    11b1:	f2 0f 11 64 24 20    	movsd  %xmm4,0x20(%rsp)
    11b7:	66 41 0f 6e e6       	movd   %r14d,%xmm4
    11bc:	f2 0f 5a e9          	cvtsd2ss %xmm1,%xmm5
    11c0:	f3 0f 5a c4          	cvtss2sd %xmm4,%xmm0
    11c4:	f3 0f 11 6c 24 08    	movss  %xmm5,0x8(%rsp)
    11ca:	e8 b1 fe ff ff       	call   1080 <sincos@plt>
    11cf:	f3 0f 10 0d 99 0e 00 	movss  0xe99(%rip),%xmm1        # 2070 <_IO_stdin_used+0x70>
    11d6:	00 
    11d7:	4c 89 ee             	mov    %r13,%rsi
    11da:	f3 0f 58 4c 24 08    	addss  0x8(%rsp),%xmm1
    11e0:	f3 44 0f 10 54 24 1c 	movss  0x1c(%rsp),%xmm10
    11e7:	f2 0f 5a 7c 24 58    	cvtsd2ss 0x58(%rsp),%xmm7
    11ed:	f2 44 0f 10 5c 24 28 	movsd  0x28(%rsp),%xmm11
    11f4:	f2 44 0f 5a 44 24 50 	cvtsd2ss 0x50(%rsp),%xmm8
    11fb:	f2 0f 10 64 24 20    	movsd  0x20(%rsp),%xmm4
    1201:	f3 0f 10 1d 6f 0e 00 	movss  0xe6f(%rip),%xmm3        # 2078 <_IO_stdin_used+0x78>
    1208:	00 
    1209:	f3 0f 11 7c 24 34    	movss  %xmm7,0x34(%rsp)
    120f:	4c 89 e7             	mov    %r12,%rdi
    1212:	f3 44 0f 59 d1       	mulss  %xmm1,%xmm10
    1217:	f2 45 0f 5a db       	cvtsd2ss %xmm11,%xmm11
    121c:	41 0f 28 eb          	movaps %xmm11,%xmm5
    1220:	f3 0f 11 4c 24 44    	movss  %xmm1,0x44(%rsp)
    1226:	f3 41 0f 59 e8       	mulss  %xmm8,%xmm5
    122b:	f2 0f 5a e4          	cvtsd2ss %xmm4,%xmm4
    122f:	f3 44 0f 11 5c 24 40 	movss  %xmm11,0x40(%rsp)
    1236:	f3 44 0f 11 44 24 3c 	movss  %xmm8,0x3c(%rsp)
    123d:	f3 0f 11 64 24 20    	movss  %xmm4,0x20(%rsp)
    1243:	41 0f 28 f2          	movaps %xmm10,%xmm6
    1247:	f3 44 0f 11 54 24 38 	movss  %xmm10,0x38(%rsp)
    124e:	f3 0f 59 f7          	mulss  %xmm7,%xmm6
    1252:	66 41 0f 6e ff       	movd   %r15d,%xmm7
    1257:	f3 0f 11 6c 24 30    	movss  %xmm5,0x30(%rsp)
    125d:	f3 0f 5a c7          	cvtss2sd %xmm7,%xmm0
    1261:	f3 0f 58 f5          	addss  %xmm5,%xmm6
    1265:	f3 0f 58 35 07 0e 00 	addss  0xe07(%rip),%xmm6        # 2074 <_IO_stdin_used+0x74>
    126c:	00 
    126d:	f3 0f 5e de          	divss  %xmm6,%xmm3
    1271:	f3 0f 11 5c 24 28    	movss  %xmm3,0x28(%rsp)
    1277:	e8 04 fe ff ff       	call   1080 <sincos@plt>
    127c:	f3 44 0f 10 5c 24 40 	movss  0x40(%rsp),%xmm11
    1283:	f3 0f 10 7c 24 34    	movss  0x34(%rsp),%xmm7
    1289:	f2 44 0f 5a 4c 24 50 	cvtsd2ss 0x50(%rsp),%xmm9
    1290:	f3 0f 10 64 24 20    	movss  0x20(%rsp),%xmm4
    1296:	f3 0f 10 4c 24 44    	movss  0x44(%rsp),%xmm1
    129c:	45 0f 28 e1          	movaps %xmm9,%xmm12
    12a0:	f2 0f 5a 74 24 58    	cvtsd2ss 0x58(%rsp),%xmm6
    12a6:	41 0f 28 c3          	movaps %xmm11,%xmm0
    12aa:	f3 44 0f 10 54 24 38 	movss  0x38(%rsp),%xmm10
    12b1:	f3 44 0f 10 44 24 3c 	movss  0x3c(%rsp),%xmm8
    12b8:	f3 0f 59 c7          	mulss  %xmm7,%xmm0
    12bc:	f3 0f 10 5c 24 28    	movss  0x28(%rsp),%xmm3
    12c2:	f2 0f 10 54 24 48    	movsd  0x48(%rsp),%xmm2
    12c8:	f3 45 0f 59 d0       	mulss  %xmm8,%xmm10
    12cd:	f3 0f 59 cc          	mulss  %xmm4,%xmm1
    12d1:	f3 44 0f 5c d0       	subss  %xmm0,%xmm10
    12d6:	44 0f 28 d9          	movaps %xmm1,%xmm11
    12da:	f3 44 0f 59 de       	mulss  %xmm6,%xmm11
    12df:	f3 45 0f 59 e2       	mulss  %xmm10,%xmm12
    12e4:	f3 45 0f 58 dc       	addss  %xmm12,%xmm11
    12e9:	f3 44 0f 10 25 8a 0d 	movss  0xd8a(%rip),%xmm12        # 207c <_IO_stdin_used+0x7c>
    12f0:	00 00 
    12f2:	f3 44 0f 59 e3       	mulss  %xmm3,%xmm12
    12f7:	f3 45 0f 59 dc       	mulss  %xmm12,%xmm11
    12fc:	f3 44 0f 58 1d 7b 0d 	addss  0xd7b(%rip),%xmm11        # 2080 <_IO_stdin_used+0x80>
    1303:	00 00 
    1305:	f3 41 0f 2c c3       	cvttss2si %xmm11,%eax
    130a:	8d 50 ff             	lea    -0x1(%rax),%edx
    130d:	83 fa 14             	cmp    $0x14,%edx
    1310:	0f 87 b0 00 00 00    	ja     13c6 <main+0x326>
    1316:	f3 44 0f 59 d6       	mulss  %xmm6,%xmm10
    131b:	f3 41 0f 59 c9       	mulss  %xmm9,%xmm1
    1320:	f3 41 0f 5c ca       	subss  %xmm10,%xmm1
    1325:	f3 44 0f 10 15 56 0d 	movss  0xd56(%rip),%xmm10        # 2084 <_IO_stdin_used+0x84>
    132c:	00 00 
    132e:	f3 44 0f 59 d3       	mulss  %xmm3,%xmm10
    1333:	f3 41 0f 59 ca       	mulss  %xmm10,%xmm1
    1338:	f3 0f 58 0d 48 0d 00 	addss  0xd48(%rip),%xmm1        # 2088 <_IO_stdin_used+0x88>
    133f:	00 
    1340:	f3 0f 2c d1          	cvttss2si %xmm1,%edx
    1344:	8d 4a ff             	lea    -0x1(%rdx),%ecx
    1347:	83 f9 4e             	cmp    $0x4e,%ecx
    134a:	77 7a                	ja     13c6 <main+0x326>
    134c:	6b c0 50             	imul   $0x50,%eax,%eax
    134f:	01 d0                	add    %edx,%eax
    1351:	48 98                	cltq   
    1353:	0f 2f 5c 84 68       	comiss 0x68(%rsp,%rax,4),%xmm3
    1358:	76 6c                	jbe    13c6 <main+0x326>
    135a:	f3 0f 10 4c 24 1c    	movss  0x1c(%rsp),%xmm1
    1360:	f3 0f 59 4c 24 08    	mulss  0x8(%rsp),%xmm1
    1366:	31 c9                	xor    %ecx,%ecx
    1368:	f3 0f 11 5c 84 68    	movss  %xmm3,0x68(%rsp,%rax,4)
    136e:	f3 0f 10 6c 24 30    	movss  0x30(%rsp),%xmm5
    1374:	f3 44 0f 59 c1       	mulss  %xmm1,%xmm8
    1379:	f3 0f 59 cf          	mulss  %xmm7,%xmm1
    137d:	f3 41 0f 5c c0       	subss  %xmm8,%xmm0
    1382:	f3 41 0f 59 c1       	mulss  %xmm9,%xmm0
    1387:	f3 0f 5c c1          	subss  %xmm1,%xmm0
    138b:	f3 0f 10 4c 24 08    	movss  0x8(%rsp),%xmm1
    1391:	f3 0f 59 cc          	mulss  %xmm4,%xmm1
    1395:	f3 0f 5c c5          	subss  %xmm5,%xmm0
    1399:	f3 0f 59 ce          	mulss  %xmm6,%xmm1
    139d:	f3 0f 5c c1          	subss  %xmm1,%xmm0
    13a1:	f3 0f 59 05 e3 0c 00 	mulss  0xce3(%rip),%xmm0        # 208c <_IO_stdin_used+0x8c>
    13a8:	00 
    13a9:	f3 0f 2c d0          	cvttss2si %xmm0,%edx
    13ad:	85 d2                	test   %edx,%edx
    13af:	0f 48 d1             	cmovs  %ecx,%edx
    13b2:	48 8d 0d 60 0c 00 00 	lea    0xc60(%rip),%rcx        # 2019 <_IO_stdin_used+0x19>
    13b9:	48 63 d2             	movslq %edx,%rdx
    13bc:	8a 14 11             	mov    (%rcx,%rdx,1),%dl
    13bf:	88 94 04 e8 1b 00 00 	mov    %dl,0x1be8(%rsp,%rax,1)
    13c6:	f2 0f 10 44 24 10    	movsd  0x10(%rsp),%xmm0
    13cc:	f2 0f 58 05 bc 0c 00 	addsd  0xcbc(%rip),%xmm0        # 2090 <_IO_stdin_used+0x90>
    13d3:	00 
    13d4:	f2 0f 5a c0          	cvtsd2ss %xmm0,%xmm0
    13d8:	e9 5b fd ff ff       	jmp    1138 <main+0x98>
    13dd:	f2 0f 58 15 b3 0c 00 	addsd  0xcb3(%rip),%xmm2        # 2098 <_IO_stdin_used+0x98>
    13e4:	00 
    13e5:	f2 0f 5a d2          	cvtsd2ss %xmm2,%xmm2
    13e9:	e9 36 fd ff ff       	jmp    1124 <main+0x84>
    13ee:	48 8d 35 20 0c 00 00 	lea    0xc20(%rip),%rsi        # 2015 <_IO_stdin_used+0x15>
    13f5:	bf 01 00 00 00       	mov    $0x1,%edi
    13fa:	31 c0                	xor    %eax,%eax
    13fc:	e8 8f fc ff ff       	call   1090 <__printf_chk@plt>
    1401:	31 f6                	xor    %esi,%esi
    1403:	89 35 7b 2c 00 00    	mov    %esi,0x2c7b(%rip)        # 4084 <k>
    1409:	81 fe e0 06 00 00    	cmp    $0x6e0,%esi
    140f:	7f 1b                	jg     142c <main+0x38c>
    1411:	48 63 c6             	movslq %esi,%rax
    1414:	0f be bc 04 e8 1b 00 	movsbl 0x1be8(%rsp,%rax,1),%edi
    141b:	00 
    141c:	e8 38 01 00 00       	call   1559 <print_shade>
    1421:	8b 05 5d 2c 00 00    	mov    0x2c5d(%rip),%eax        # 4084 <k>
    1427:	8d 70 01             	lea    0x1(%rax),%esi
    142a:	eb d7                	jmp    1403 <main+0x363>
    142c:	66 41 0f 6e ee       	movd   %r14d,%xmm5
    1431:	66 41 0f 6e df       	movd   %r15d,%xmm3
    1436:	f3 0f 5a c5          	cvtss2sd %xmm5,%xmm0
    143a:	f2 0f 58 05 5e 0c 00 	addsd  0xc5e(%rip),%xmm0        # 20a0 <_IO_stdin_used+0xa0>
    1441:	00 
    1442:	f2 0f 5a e0          	cvtsd2ss %xmm0,%xmm4
    1446:	f3 0f 5a c3          	cvtss2sd %xmm3,%xmm0
    144a:	f2 0f 58 05 3e 0c 00 	addsd  0xc3e(%rip),%xmm0        # 2090 <_IO_stdin_used+0x90>
    1451:	00 
    1452:	66 41 0f 7e e6       	movd   %xmm4,%r14d
    1457:	f2 0f 5a d0          	cvtsd2ss %xmm0,%xmm2
    145b:	66 41 0f 7e d7       	movd   %xmm2,%r15d
    1460:	e9 92 fc ff ff       	jmp    10f7 <main+0x57>
    1465:	66 2e 0f 1f 84 00 00 	cs nopw 0x0(%rax,%rax,1)
    146c:	00 00 00 
    146f:	90                   	nop

0000000000001470 <_start>:
    1470:	f3 0f 1e fa          	endbr64 
    1474:	31 ed                	xor    %ebp,%ebp
    1476:	49 89 d1             	mov    %rdx,%r9
    1479:	5e                   	pop    %rsi
    147a:	48 89 e2             	mov    %rsp,%rdx
    147d:	48 83 e4 f0          	and    $0xfffffffffffffff0,%rsp
    1481:	50                   	push   %rax
    1482:	54                   	push   %rsp
    1483:	45 31 c0             	xor    %r8d,%r8d
    1486:	31 c9                	xor    %ecx,%ecx
    1488:	48 8d 3d 11 fc ff ff 	lea    -0x3ef(%rip),%rdi        # 10a0 <main>
    148f:	ff 15 43 2b 00 00    	call   *0x2b43(%rip)        # 3fd8 <__libc_start_main@GLIBC_2.34>
    1495:	f4                   	hlt    
    1496:	66 2e 0f 1f 84 00 00 	cs nopw 0x0(%rax,%rax,1)
    149d:	00 00 00 

00000000000014a0 <deregister_tm_clones>:
    14a0:	48 8d 3d d9 2b 00 00 	lea    0x2bd9(%rip),%rdi        # 4080 <__TMC_END__>
    14a7:	48 8d 05 d2 2b 00 00 	lea    0x2bd2(%rip),%rax        # 4080 <__TMC_END__>
    14ae:	48 39 f8             	cmp    %rdi,%rax
    14b1:	74 15                	je     14c8 <deregister_tm_clones+0x28>
    14b3:	48 8b 05 26 2b 00 00 	mov    0x2b26(%rip),%rax        # 3fe0 <_ITM_deregisterTMCloneTable@Base>
    14ba:	48 85 c0             	test   %rax,%rax
    14bd:	74 09                	je     14c8 <deregister_tm_clones+0x28>
    14bf:	ff e0                	jmp    *%rax
    14c1:	0f 1f 80 00 00 00 00 	nopl   0x0(%rax)
    14c8:	c3                   	ret    
    14c9:	0f 1f 80 00 00 00 00 	nopl   0x0(%rax)

00000000000014d0 <register_tm_clones>:
    14d0:	48 8d 3d a9 2b 00 00 	lea    0x2ba9(%rip),%rdi        # 4080 <__TMC_END__>
    14d7:	48 8d 35 a2 2b 00 00 	lea    0x2ba2(%rip),%rsi        # 4080 <__TMC_END__>
    14de:	48 29 fe             	sub    %rdi,%rsi
    14e1:	48 89 f0             	mov    %rsi,%rax
    14e4:	48 c1 ee 3f          	shr    $0x3f,%rsi
    14e8:	48 c1 f8 03          	sar    $0x3,%rax
    14ec:	48 01 c6             	add    %rax,%rsi
    14ef:	48 d1 fe             	sar    %rsi
    14f2:	74 14                	je     1508 <register_tm_clones+0x38>
    14f4:	48 8b 05 f5 2a 00 00 	mov    0x2af5(%rip),%rax        # 3ff0 <_ITM_registerTMCloneTable@Base>
    14fb:	48 85 c0             	test   %rax,%rax
    14fe:	74 08                	je     1508 <register_tm_clones+0x38>
    1500:	ff e0                	jmp    *%rax
    1502:	66 0f 1f 44 00 00    	nopw   0x0(%rax,%rax,1)
    1508:	c3                   	ret    
    1509:	0f 1f 80 00 00 00 00 	nopl   0x0(%rax)

0000000000001510 <__do_global_dtors_aux>:
    1510:	f3 0f 1e fa          	endbr64 
    1514:	80 3d 65 2b 00 00 00 	cmpb   $0x0,0x2b65(%rip)        # 4080 <__TMC_END__>
    151b:	75 2b                	jne    1548 <__do_global_dtors_aux+0x38>
    151d:	55                   	push   %rbp
    151e:	48 83 3d d2 2a 00 00 	cmpq   $0x0,0x2ad2(%rip)        # 3ff8 <__cxa_finalize@GLIBC_2.2.5>
    1525:	00 
    1526:	48 89 e5             	mov    %rsp,%rbp
    1529:	74 0c                	je     1537 <__do_global_dtors_aux+0x27>
    152b:	48 8b 3d d6 2a 00 00 	mov    0x2ad6(%rip),%rdi        # 4008 <__dso_handle>
    1532:	e8 29 fb ff ff       	call   1060 <__cxa_finalize@plt>
    1537:	e8 64 ff ff ff       	call   14a0 <deregister_tm_clones>
    153c:	c6 05 3d 2b 00 00 01 	movb   $0x1,0x2b3d(%rip)        # 4080 <__TMC_END__>
    1543:	5d                   	pop    %rbp
    1544:	c3                   	ret    
    1545:	0f 1f 00             	nopl   (%rax)
    1548:	c3                   	ret    
    1549:	0f 1f 80 00 00 00 00 	nopl   0x0(%rax)

0000000000001550 <frame_dummy>:
    1550:	f3 0f 1e fa          	endbr64 
    1554:	e9 77 ff ff ff       	jmp    14d0 <register_tm_clones>

0000000000001559 <print_shade>:
    1559:	f3 0f 1e fa          	endbr64 
    155d:	89 f0                	mov    %esi,%eax
    155f:	b9 50 00 00 00       	mov    $0x50,%ecx
    1564:	99                   	cltd   
    1565:	f7 f9                	idiv   %ecx
    1567:	85 d2                	test   %edx,%edx
    1569:	74 35                	je     15a0 <print_shade+0x47>
    156b:	40 80 ff 20          	cmp    $0x20,%dil
    156f:	75 07                	jne    1578 <print_shade+0x1f>
    1571:	bf 20 00 00 00       	mov    $0x20,%edi
    1576:	eb 2d                	jmp    15a5 <print_shade+0x4c>
    1578:	40 0f be ff          	movsbl %dil,%edi
    157c:	48 8d 05 9d 2a 00 00 	lea    0x2a9d(%rip),%rax        # 4020 <shades>
    1583:	48 8d 35 7a 0a 00 00 	lea    0xa7a(%rip),%rsi        # 2004 <_IO_stdin_used+0x4>
    158a:	83 ef 61             	sub    $0x61,%edi
    158d:	48 63 ff             	movslq %edi,%rdi
    1590:	48 8b 14 f8          	mov    (%rax,%rdi,8),%rdx
    1594:	bf 01 00 00 00       	mov    $0x1,%edi
    1599:	31 c0                	xor    %eax,%eax
    159b:	e9 f0 fa ff ff       	jmp    1090 <__printf_chk@plt>
    15a0:	bf 0a 00 00 00       	mov    $0xa,%edi
    15a5:	e9 c6 fa ff ff       	jmp    1070 <putchar@plt>

Disassembly of section .fini:

00000000000015ac <_fini>:
    15ac:	f3 0f 1e fa          	endbr64 
    15b0:	48 83 ec 08          	sub    $0x8,%rsp
    15b4:	48 83 c4 08          	add    $0x8,%rsp
    15b8:	c3                   	ret    
