	.file	"donut.c"
	.text
.Ltext0:
	.file 0 "/home/dev/git/donut/C" "donut.c"
	.globl	shades
	.section	.rodata
.LC0:
	.string	"\033[40;40m"
.LC1:
	.string	"\033[41;41m"
.LC2:
	.string	"\033[42;42m"
.LC3:
	.string	"\033[43;43m"
.LC4:
	.string	"\033[44;44m"
.LC5:
	.string	"\033[45;45m"
.LC6:
	.string	"\033[46;46m"
.LC7:
	.string	"\033[47;47m"
	.section	.data.rel.local,"aw"
	.align 32
	.type	shades, @object
	.size	shades, 96
shades:
	.quad	.LC0
	.quad	.LC1
	.quad	.LC1
	.quad	.LC2
	.quad	.LC3
	.quad	.LC3
	.quad	.LC4
	.quad	.LC5
	.quad	.LC5
	.quad	.LC6
	.quad	.LC7
	.quad	.LC7
	.section	.rodata
.LC8:
	.string	"%s \033[47;40m"
	.text
	.globl	print_shade
	.type	print_shade, @function
print_shade:
.LFB0:
	.file 1 "donut.c"
	.loc 1 20 33
	.cfi_startproc
	endbr64
	pushq	%rbp
	.cfi_def_cfa_offset 16
	.cfi_offset 6, -16
	movq	%rsp, %rbp
	.cfi_def_cfa_register 6
	subq	$32, %rsp
	movl	%edi, %eax
	movl	%esi, -24(%rbp)
	movb	%al, -20(%rbp)
	.loc 1 21 17
	movsbl	-20(%rbp), %eax
	.loc 1 21 9
	subl	$97, %eax
	movl	%eax, -4(%rbp)
	.loc 1 22 9
	movl	-24(%rbp), %ecx
	movslq	%ecx, %rax
	imulq	$1717986919, %rax, %rax
	shrq	$32, %rax
	sarl	$5, %eax
	movl	%ecx, %esi
	sarl	$31, %esi
	subl	%esi, %eax
	movl	%eax, %edx
	movl	%edx, %eax
	sall	$2, %eax
	addl	%edx, %eax
	sall	$4, %eax
	subl	%eax, %ecx
	movl	%ecx, %edx
	.loc 1 22 7
	testl	%edx, %edx
	je	.L2
	.loc 1 23 11
	cmpb	$32, -20(%rbp)
	jne	.L3
	.loc 1 23 21 discriminator 1
	movsbl	-20(%rbp), %eax
	movl	%eax, %edi
	call	putchar@PLT
	.loc 1 28 1 discriminator 1
	jmp	.L5
.L3:
	.loc 1 24 14
	movl	-4(%rbp), %eax
	cltq
	leaq	0(,%rax,8), %rdx
	leaq	shades(%rip), %rax
	movq	(%rdx,%rax), %rax
	movq	%rax, %rsi
	leaq	.LC8(%rip), %rax
	movq	%rax, %rdi
	movl	$0, %eax
	call	printf@PLT
	.loc 1 28 1
	jmp	.L5
.L2:
	.loc 1 26 9
	movl	$10, %edi
	call	putchar@PLT
.L5:
	.loc 1 28 1
	nop
	leave
	.cfi_def_cfa 7, 8
	ret
	.cfi_endproc
.LFE0:
	.size	print_shade, .-print_shade
	.globl	k
	.bss
	.align 4
	.type	k, @object
	.size	k, 4
k:
	.zero	4
	.section	.rodata
.LC10:
	.string	"\033[2J"
.LC23:
	.string	"\033[d"
.LC19:
	.string	"abcdefghijkl"
	.text
	.globl	main
	.type	main, @function
main:
.LFB1:
	.loc 1 32 11
	.cfi_startproc
	endbr64
	pushq	%rbp
	.cfi_def_cfa_offset 16
	.cfi_offset 6, -16
	movq	%rsp, %rbp
	.cfi_def_cfa_register 6
	subq	$4096, %rsp
	orq	$0, (%rsp)
	subq	$4096, %rsp
	orq	$0, (%rsp)
	subq	$704, %rsp
	.loc 1 32 11
	movq	%fs:40, %rax
	movq	%rax, -8(%rbp)
	xorl	%eax, %eax
	.loc 1 33 11
	pxor	%xmm0, %xmm0
	movss	%xmm0, -8892(%rbp)
	.loc 1 33 16
	pxor	%xmm0, %xmm0
	movss	%xmm0, -8888(%rbp)
	.loc 1 35 5
	leaq	.LC10(%rip), %rax
	movq	%rax, %rdi
	movl	$0, %eax
	call	printf@PLT
.L15:
	.loc 1 37 9
	leaq	-1776(%rbp), %rax
	movl	$1760, %edx
	movl	$32, %esi
	movq	%rax, %rdi
	call	memset@PLT
	.loc 1 38 9
	leaq	-8816(%rbp), %rax
	movl	$7040, %edx
	movl	$0, %esi
	movq	%rax, %rdi
	call	memset@PLT
	.loc 1 39 14
	pxor	%xmm0, %xmm0
	movss	%xmm0, -8880(%rbp)
	.loc 1 39 9
	jmp	.L7
.L12:
	.loc 1 40 18
	pxor	%xmm0, %xmm0
	movss	%xmm0, -8884(%rbp)
	.loc 1 40 13
	jmp	.L8
.L11:
.LBB2:
	.loc 1 41 28
	pxor	%xmm3, %xmm3
	cvtss2sd	-8884(%rbp), %xmm3
	movq	%xmm3, %rax
	movq	%rax, %xmm0
	call	sin@PLT
	.loc 1 41 23
	cvtsd2ss	%xmm0, %xmm0
	movss	%xmm0, -8876(%rbp)
	.loc 1 42 28
	pxor	%xmm4, %xmm4
	cvtss2sd	-8880(%rbp), %xmm4
	movq	%xmm4, %rax
	movq	%rax, %xmm0
	call	cos@PLT
	.loc 1 42 23
	cvtsd2ss	%xmm0, %xmm0
	movss	%xmm0, -8872(%rbp)
	.loc 1 43 28
	pxor	%xmm5, %xmm5
	cvtss2sd	-8892(%rbp), %xmm5
	movq	%xmm5, %rax
	movq	%rax, %xmm0
	call	sin@PLT
	.loc 1 43 23
	cvtsd2ss	%xmm0, %xmm0
	movss	%xmm0, -8868(%rbp)
	.loc 1 44 28
	pxor	%xmm6, %xmm6
	cvtss2sd	-8880(%rbp), %xmm6
	movq	%xmm6, %rax
	movq	%rax, %xmm0
	call	sin@PLT
	.loc 1 44 23
	cvtsd2ss	%xmm0, %xmm0
	movss	%xmm0, -8864(%rbp)
	.loc 1 45 28
	pxor	%xmm7, %xmm7
	cvtss2sd	-8892(%rbp), %xmm7
	movq	%xmm7, %rax
	movq	%rax, %xmm0
	call	cos@PLT
	.loc 1 45 23
	cvtsd2ss	%xmm0, %xmm0
	movss	%xmm0, -8860(%rbp)
	.loc 1 46 23
	movss	-8872(%rbp), %xmm1
	movss	.LC11(%rip), %xmm0
	addss	%xmm1, %xmm0
	movss	%xmm0, -8856(%rbp)
	.loc 1 47 35
	movss	-8876(%rbp), %xmm0
	mulss	-8856(%rbp), %xmm0
	.loc 1 47 41
	movaps	%xmm0, %xmm1
	mulss	-8868(%rbp), %xmm1
	.loc 1 47 51
	movss	-8864(%rbp), %xmm0
	mulss	-8860(%rbp), %xmm0
	.loc 1 47 46
	addss	%xmm0, %xmm1
	.loc 1 47 56
	movss	.LC12(%rip), %xmm0
	addss	%xmm0, %xmm1
	.loc 1 47 23
	movss	.LC13(%rip), %xmm0
	divss	%xmm1, %xmm0
	movss	%xmm0, -8852(%rbp)
	.loc 1 48 28
	pxor	%xmm3, %xmm3
	cvtss2sd	-8884(%rbp), %xmm3
	movq	%xmm3, %rax
	movq	%rax, %xmm0
	call	cos@PLT
	.loc 1 48 23
	cvtsd2ss	%xmm0, %xmm0
	movss	%xmm0, -8848(%rbp)
	.loc 1 49 28
	pxor	%xmm4, %xmm4
	cvtss2sd	-8888(%rbp), %xmm4
	movq	%xmm4, %rax
	movq	%rax, %xmm0
	call	cos@PLT
	.loc 1 49 23
	cvtsd2ss	%xmm0, %xmm0
	movss	%xmm0, -8844(%rbp)
	.loc 1 50 28
	pxor	%xmm5, %xmm5
	cvtss2sd	-8888(%rbp), %xmm5
	movq	%xmm5, %rax
	movq	%rax, %xmm0
	call	sin@PLT
	.loc 1 50 23
	cvtsd2ss	%xmm0, %xmm0
	movss	%xmm0, -8840(%rbp)
	.loc 1 51 29
	movss	-8876(%rbp), %xmm0
	mulss	-8856(%rbp), %xmm0
	.loc 1 51 35
	mulss	-8860(%rbp), %xmm0
	.loc 1 51 45
	movss	-8864(%rbp), %xmm1
	mulss	-8868(%rbp), %xmm1
	.loc 1 51 23
	subss	%xmm1, %xmm0
	movss	%xmm0, -8836(%rbp)
	.loc 1 52 28
	movss	-8852(%rbp), %xmm1
	movss	.LC14(%rip), %xmm0
	movaps	%xmm1, %xmm2
	mulss	%xmm0, %xmm2
	.loc 1 52 39
	movss	-8848(%rbp), %xmm0
	mulss	-8856(%rbp), %xmm0
	.loc 1 52 45
	mulss	-8844(%rbp), %xmm0
	.loc 1 52 52
	movss	-8836(%rbp), %xmm1
	mulss	-8840(%rbp), %xmm1
	.loc 1 52 50
	subss	%xmm1, %xmm0
	.loc 1 52 33
	mulss	%xmm0, %xmm2
	movaps	%xmm2, %xmm1
	.loc 1 52 25
	movss	.LC15(%rip), %xmm0
	addss	%xmm1, %xmm0
	.loc 1 52 21
	cvttss2sil	%xmm0, %eax
	movl	%eax, -8832(%rbp)
	.loc 1 53 29
	movss	-8852(%rbp), %xmm1
	movss	.LC16(%rip), %xmm0
	mulss	%xmm0, %xmm1
	.loc 1 53 40
	movss	-8848(%rbp), %xmm0
	mulss	-8856(%rbp), %xmm0
	.loc 1 53 46
	movaps	%xmm0, %xmm2
	mulss	-8840(%rbp), %xmm2
	.loc 1 53 54
	movss	-8836(%rbp), %xmm0
	mulss	-8844(%rbp), %xmm0
	.loc 1 53 52
	addss	%xmm2, %xmm0
	.loc 1 53 34
	mulss	%xmm0, %xmm1
	.loc 1 53 26
	movss	.LC17(%rip), %xmm0
	addss	%xmm1, %xmm0
	.loc 1 53 21
	cvttss2sil	%xmm0, %eax
	movl	%eax, -8828(%rbp)
	.loc 1 54 27
	movl	-8828(%rbp), %edx
	movl	%edx, %eax
	sall	$2, %eax
	addl	%edx, %eax
	sall	$4, %eax
	movl	%eax, %edx
	.loc 1 54 21
	movl	-8832(%rbp), %eax
	addl	%edx, %eax
	movl	%eax, -8824(%rbp)
	.loc 1 55 31
	movss	-8864(%rbp), %xmm0
	mulss	-8868(%rbp), %xmm0
	.loc 1 55 41
	movss	-8876(%rbp), %xmm1
	mulss	-8872(%rbp), %xmm1
	.loc 1 55 46
	mulss	-8860(%rbp), %xmm1
	.loc 1 55 36
	subss	%xmm1, %xmm0
	.loc 1 55 52
	mulss	-8844(%rbp), %xmm0
	.loc 1 55 62
	movss	-8876(%rbp), %xmm1
	mulss	-8872(%rbp), %xmm1
	.loc 1 55 67
	mulss	-8868(%rbp), %xmm1
	.loc 1 55 57
	subss	%xmm1, %xmm0
	.loc 1 55 77
	movss	-8864(%rbp), %xmm1
	mulss	-8860(%rbp), %xmm1
	.loc 1 55 72
	subss	%xmm1, %xmm0
	.loc 1 55 88
	movss	-8848(%rbp), %xmm1
	mulss	-8872(%rbp), %xmm1
	.loc 1 55 93
	movaps	%xmm1, %xmm2
	mulss	-8840(%rbp), %xmm2
	.loc 1 55 82
	movaps	%xmm0, %xmm1
	subss	%xmm2, %xmm1
	.loc 1 55 24
	movss	.LC18(%rip), %xmm0
	mulss	%xmm1, %xmm0
	.loc 1 55 21
	cvttss2sil	%xmm0, %eax
	movl	%eax, -8820(%rbp)
	.loc 1 56 19
	cmpl	$21, -8828(%rbp)
	jg	.L9
	.loc 1 56 24 discriminator 1
	cmpl	$0, -8828(%rbp)
	jle	.L9
	.loc 1 56 29 discriminator 2
	cmpl	$0, -8832(%rbp)
	jle	.L9
	.loc 1 56 34 discriminator 3
	cmpl	$79, -8832(%rbp)
	jg	.L9
	.loc 1 56 48 discriminator 4
	movl	-8824(%rbp), %eax
	cltq
	movss	-8816(%rbp,%rax,4), %xmm1
	.loc 1 56 40 discriminator 4
	movss	-8852(%rbp), %xmm0
	comiss	%xmm1, %xmm0
	jbe	.L9
	.loc 1 57 25
	movl	-8824(%rbp), %eax
	cltq
	movss	-8852(%rbp), %xmm0
	movss	%xmm0, -8816(%rbp,%rax,4)
	.loc 1 58 46
	movl	-8820(%rbp), %eax
	movl	$0, %edx
	testl	%eax, %eax
	cmovs	%edx, %eax
	.loc 1 58 40
	cltq
	leaq	.LC19(%rip), %rdx
	movzbl	(%rax,%rdx), %edx
	.loc 1 58 25
	movl	-8824(%rbp), %eax
	cltq
	movb	%dl, -1776(%rbp,%rax)
.L9:
.LBE2:
	.loc 1 40 32 discriminator 2
	pxor	%xmm1, %xmm1
	cvtss2sd	-8884(%rbp), %xmm1
	movsd	.LC20(%rip), %xmm0
	addsd	%xmm1, %xmm0
	cvtsd2ss	%xmm0, %xmm0
	movss	%xmm0, -8884(%rbp)
.L8:
	.loc 1 40 27 discriminator 1
	pxor	%xmm1, %xmm1
	cvtss2sd	-8884(%rbp), %xmm1
	movsd	.LC21(%rip), %xmm0
	comisd	%xmm1, %xmm0
	ja	.L11
	.loc 1 39 27 discriminator 2
	pxor	%xmm1, %xmm1
	cvtss2sd	-8880(%rbp), %xmm1
	movsd	.LC22(%rip), %xmm0
	addsd	%xmm1, %xmm0
	cvtsd2ss	%xmm0, %xmm0
	movss	%xmm0, -8880(%rbp)
.L7:
	.loc 1 39 22 discriminator 1
	pxor	%xmm1, %xmm1
	cvtss2sd	-8880(%rbp), %xmm1
	movsd	.LC21(%rip), %xmm0
	comisd	%xmm1, %xmm0
	ja	.L12
	.loc 1 62 9
	leaq	.LC23(%rip), %rax
	movq	%rax, %rdi
	movl	$0, %eax
	call	printf@PLT
	.loc 1 63 14
	movl	$0, k(%rip)
	.loc 1 63 9
	jmp	.L13
.L14:
	.loc 1 64 13 discriminator 3
	movl	k(%rip), %edx
	.loc 1 64 26 discriminator 3
	movl	k(%rip), %eax
	cltq
	movzbl	-1776(%rbp,%rax), %eax
	.loc 1 64 13 discriminator 3
	movsbl	%al, %eax
	movl	%edx, %esi
	movl	%eax, %edi
	call	print_shade
	.loc 1 63 27 discriminator 3
	movl	k(%rip), %eax
	addl	$1, %eax
	movl	%eax, k(%rip)
.L13:
	.loc 1 63 22 discriminator 1
	movl	k(%rip), %eax
	cmpl	$1760, %eax
	jle	.L14
	.loc 1 65 10
	pxor	%xmm1, %xmm1
	cvtss2sd	-8892(%rbp), %xmm1
	movsd	.LC24(%rip), %xmm0
	addsd	%xmm1, %xmm0
	cvtsd2ss	%xmm0, %xmm0
	movss	%xmm0, -8892(%rbp)
	.loc 1 66 10
	pxor	%xmm1, %xmm1
	cvtss2sd	-8888(%rbp), %xmm1
	movsd	.LC20(%rip), %xmm0
	addsd	%xmm1, %xmm0
	cvtsd2ss	%xmm0, %xmm0
	movss	%xmm0, -8888(%rbp)
	.loc 1 37 9
	jmp	.L15
	.cfi_endproc
.LFE1:
	.size	main, .-main
	.section	.rodata
	.align 4
.LC11:
	.long	1073741824
	.align 4
.LC12:
	.long	1084227584
	.align 4
.LC13:
	.long	1065353216
	.align 4
.LC14:
	.long	1106247680
	.align 4
.LC15:
	.long	1109393408
	.align 4
.LC16:
	.long	1097859072
	.align 4
.LC17:
	.long	1094713344
	.align 4
.LC18:
	.long	1090519040
	.align 8
.LC20:
	.long	1202590843
	.long	1066695393
	.align 8
.LC21:
	.long	1374389535
	.long	1075388088
	.align 8
.LC22:
	.long	515396076
	.long	1068624773
	.align 8
.LC24:
	.long	1202590843
	.long	1067743969
	.text
.Letext0:
	.file 2 "/usr/include/x86_64-linux-gnu/bits/mathcalls.h"
	.file 3 "/usr/include/string.h"
	.file 4 "/usr/include/stdio.h"
	.file 5 "/usr/lib/gcc/x86_64-linux-gnu/11/include/stddef.h"
	.section	.note.GNU-stack,"",@progbits
	.section	.note.gnu.property,"a"
	.align 8
	.long	1f - 0f
	.long	4f - 1f
	.long	5
0:
	.string	"GNU"
1:
	.align 8
	.long	0xc0000002
	.long	3f - 2f
2:
	.long	0x3
3:
	.align 8
4:
